target datalayout = "e-m:e-p270:32:32-p271:32:32-p272:64:64-i64:64-i128:128-f80:128-n8:16:32:64-S128"
target triple = "x86_64-pc-linux-gnu"

%class.JfrNonJavaThreadIteratorAdapter = type { %"class.NonJavaThread::Iterator", ptr }
%"class.NonJavaThread::Iterator" = type { i32, ptr }
%class.Thread = type { %class.ThreadShadow.base, i64, [43 x i64], ptr, ptr, i32, ptr, i64, i64, %class.ThreadLocalAllocBuffer, i64, %class.ThreadHeapSampler, %class.ThreadStatisticalInfo, %class.JfrThreadLocal, ptr, ptr, ptr, ptr, ptr, ptr, i64, i32, i32, ptr, i32, i32, i32, i32, i8, ptr }
%class.ThreadShadow.base = type <{ ptr, ptr, ptr, i32 }>
%class.ThreadLocalAllocBuffer = type <{ ptr, ptr, ptr, ptr, ptr, i64, i64, i64, i64, i32, i32, i32, i32, i64, %class.AdaptiveWeightedAverage, [4 x i8] }>
%class.AdaptiveWeightedAverage = type { float, i32, i32, i8, float }
%class.ThreadHeapSampler = type { i64 }
%class.ThreadStatisticalInfo = type { i64, i64 }
%class.JfrThreadLocal = type <{ ptr, ptr, ptr, ptr, ptr, ptr, ptr, ptr, ptr, ptr, %class.RefCountHandle, i64, i64, i64, i64, i64, i64, i64, i64, i64, i64, i64, i32, i32, i32, i16, i8, i8, i8, i8, i8, [5 x i8] }>
%class.RefCountHandle = type { ptr }

; Function Attrs: mustprogress nounwind uwtable
define linkonce_odr hidden noundef zeroext i1 @_ZNK14JfrThreadLocal7is_deadEv(ptr noundef nonnull align 8 dereferenceable(195) %0) #1 comdat align 2 {
  %2 = alloca ptr, align 8
  store ptr %0, ptr %2, align 8
  %3 = load ptr, ptr %2, align 8
  %4 = getelementptr inbounds %class.JfrThreadLocal, ptr %3, i32 0, i32 30
  %5 = load i8, ptr %4, align 2
  %6 = trunc i8 %5 to i1
  ret i1 %6
}

; Function Attrs: mustprogress nounwind uwtable
define linkonce_odr hidden noundef ptr @_ZNK6Thread16jfr_thread_localEv(ptr noundef nonnull align 8 dereferenceable(888) %0) #1 comdat align 2 {
  %2 = alloca ptr, align 8
  store ptr %0, ptr %2, align 8
  %3 = load ptr, ptr %2, align 8
  %4 = getelementptr inbounds %class.Thread, ptr %3, i32 0, i32 13
  ret ptr %4
}

; Function Attrs: mustprogress nounwind uwtable
define internal noundef zeroext i1 @_ZL26thread_inclusion_predicateP6Thread(ptr noundef %0) #1 {
  %2 = alloca ptr, align 8
  store ptr %0, ptr %2, align 8
  %3 = load ptr, ptr %2, align 8
  %4 = call noundef ptr @_ZNK6Thread16jfr_thread_localEv(ptr noundef nonnull align 8 dereferenceable(888) %3)
  %5 = call noundef zeroext i1 @_ZNK14JfrThreadLocal7is_deadEv(ptr noundef nonnull align 8 dereferenceable(195) %4)
  %6 = xor i1 %5, true
  ret i1 %6
}

; Function Attrs: mustprogress nounwind uwtable
define linkonce_odr hidden noundef ptr @_ZNK13NonJavaThread8Iterator7currentEv(ptr noundef nonnull align 8 dereferenceable(16) %0) #1 comdat align 2 {
  %2 = alloca ptr, align 8
  store ptr %0, ptr %2, align 8
  %3 = load ptr, ptr %2, align 8
  %4 = getelementptr inbounds %"class.NonJavaThread::Iterator", ptr %3, i32 0, i32 1
  %5 = load ptr, ptr %4, align 8
  ret ptr %5
}

; Function Attrs: mustprogress nounwind uwtable
define linkonce_odr hidden noundef zeroext i1 @_ZNK13NonJavaThread8Iterator3endEv(ptr noundef nonnull align 8 dereferenceable(16) %0) #1 comdat align 2 {
  %2 = alloca ptr, align 8
  store ptr %0, ptr %2, align 8
  %3 = load ptr, ptr %2, align 8
  %4 = getelementptr inbounds %"class.NonJavaThread::Iterator", ptr %3, i32 0, i32 1
  %5 = load ptr, ptr %4, align 8
  %6 = icmp eq ptr %5, null
  ret i1 %6
}

; Function Attrs: mustprogress nounwind uwtable
define internal noundef ptr @_ZL20next_non_java_threadRN13NonJavaThread8IteratorE(ptr noundef nonnull align 8 dereferenceable(16) %0) #1 {
  %2 = alloca ptr, align 8
  %3 = alloca ptr, align 8
  %4 = alloca ptr, align 8
  store ptr %0, ptr %3, align 8
  br label %5

5:                                                ; preds = %17, %1
  %6 = load ptr, ptr %3, align 8
  %7 = call noundef zeroext i1 @_ZNK13NonJavaThread8Iterator3endEv(ptr noundef nonnull align 8 dereferenceable(16) %6)
  %8 = xor i1 %7, true
  br i1 %8, label %9, label %18

9:                                                ; preds = %5
  %10 = load ptr, ptr %3, align 8
  %11 = call noundef ptr @_ZNK13NonJavaThread8Iterator7currentEv(ptr noundef nonnull align 8 dereferenceable(16) %10)
  store ptr %11, ptr %4, align 8
  %12 = load ptr, ptr %3, align 8
  call void @_ZN13NonJavaThread8Iterator4stepEv(ptr noundef nonnull align 8 dereferenceable(16) %12)
  %13 = load ptr, ptr %4, align 8
  %14 = call noundef zeroext i1 @_ZL26thread_inclusion_predicateP6Thread(ptr noundef %13)
  br i1 %14, label %15, label %17

15:                                               ; preds = %9
  %16 = load ptr, ptr %4, align 8
  store ptr %16, ptr %2, align 8
  br label %19

17:                                               ; preds = %9
  br label %5, !llvm.loop !8

18:                                               ; preds = %5
  store ptr null, ptr %2, align 8
  br label %19

19:                                               ; preds = %18, %15
  %20 = load ptr, ptr %2, align 8
  ret ptr %20
}

; Function Attrs: mustprogress nounwind uwtable
define hidden void @_ZN31JfrNonJavaThreadIteratorAdapterC2Eb(ptr noundef nonnull align 8 dereferenceable(24) %0, i1 noundef zeroext %1) unnamed_addr #1 align 2 {
  %3 = alloca ptr, align 8
  %4 = alloca i8, align 1
  store ptr %0, ptr %3, align 8
  %5 = zext i1 %1 to i8
  store i8 %5, ptr %4, align 1
  %6 = load ptr, ptr %3, align 8
  %7 = getelementptr inbounds %class.JfrNonJavaThreadIteratorAdapter, ptr %6, i32 0, i32 0
  call void @_ZN13NonJavaThread8IteratorC1Ev(ptr noundef nonnull align 8 dereferenceable(16) %7)
  %8 = getelementptr inbounds %class.JfrNonJavaThreadIteratorAdapter, ptr %6, i32 0, i32 1
  %9 = getelementptr inbounds %class.JfrNonJavaThreadIteratorAdapter, ptr %6, i32 0, i32 0
  %10 = call noundef ptr @_ZL20next_non_java_threadRN13NonJavaThread8IteratorE(ptr noundef nonnull align 8 dereferenceable(16) %9)
  store ptr %10, ptr %8, align 8
  ret void
}