; Function Attrs: mustprogress nounwind uwtable
define hidden void @_ZN31JfrNonJavaThreadIteratorAdapterC2Eb(ptr noundef nonnull align 8 dereferenceable(24) %0, i1 zeroext %1) unnamed_addr #0 align 2 {
  tail call void @_ZN13NonJavaThread8IteratorC1Ev(ptr noundef nonnull align 8 dereferenceable(16) %0) #5
  %3 = getelementptr inbounds i8, ptr %0, i64 8
  br label %4

4:                                                ; preds = %7, %2
  %5 = load ptr, ptr %3, align 8
  %6 = icmp eq ptr %5, null
  br i1 %6, label %_ZL20next_non_java_threadRN13NonJavaThread8IteratorE.exit, label %7

7:                                                ; preds = %4
  tail call void @_ZN13NonJavaThread8Iterator4stepEv(ptr noundef nonnull align 8 dereferenceable(16) %0) #5
  %8 = getelementptr i8, ptr %5, i64 778
  %.val.i = load i8, ptr %8, align 2
  %9 = trunc i8 %.val.i to i1
  br i1 %9, label %4, label %_ZL20next_non_java_threadRN13NonJavaThread8IteratorE.exit, !llvm.loop !9

_ZL20next_non_java_threadRN13NonJavaThread8IteratorE.exit: ; preds = %4, %7
  %10 = getelementptr inbounds i8, ptr %0, i64 16
  store ptr %5, ptr %10, align 8
  ret void
}